target datalayout = "e-m:e-p270:32:32-p271:32:32-p272:64:64-i64:64-i128:128-f80:128-n8:16:32:64-S128"
target triple = "x86_64-pc-linux-gnu"

%struct.Node = type { i32 }
%struct.AlterTableCmd = type { i32, i32, ptr, i16, ptr, ptr, i32, i8, i8 }

@.str.326 = private unnamed_addr constant [1 x i8] zeroinitializer, align 1

; Function Attrs: nounwind uwtable
define internal ptr @nullable_string(ptr noundef %0, i32 noundef %1) #0 {
  %3 = alloca ptr, align 8
  %4 = alloca ptr, align 8
  %5 = alloca i32, align 4
  store ptr %0, ptr %4, align 8
  store i32 %1, ptr %5, align 4
  %6 = load i32, ptr %5, align 4
  %7 = icmp eq i32 %6, 0
  br i1 %7, label %8, label %9

8:                                                ; preds = %2
  store ptr null, ptr %3, align 8
  br label %30

9:                                                ; preds = %2
  %10 = load i32, ptr %5, align 4
  %11 = icmp eq i32 %10, 2
  br i1 %11, label %12, label %26

12:                                               ; preds = %9
  %13 = load ptr, ptr %4, align 8
  %14 = getelementptr inbounds i8, ptr %13, i64 0
  %15 = load i8, ptr %14, align 1
  %16 = sext i8 %15 to i32
  %17 = icmp eq i32 %16, 34
  br i1 %17, label %18, label %26

18:                                               ; preds = %12
  %19 = load ptr, ptr %4, align 8
  %20 = getelementptr inbounds i8, ptr %19, i64 1
  %21 = load i8, ptr %20, align 1
  %22 = sext i8 %21 to i32
  %23 = icmp eq i32 %22, 34
  br i1 %23, label %24, label %26

24:                                               ; preds = %18
  %25 = call ptr @pstrdup(ptr noundef @.str.326)
  store ptr %25, ptr %3, align 8
  br label %30

26:                                               ; preds = %18, %12, %9
  %27 = load ptr, ptr %4, align 8
  %28 = load i32, ptr %5, align 4
  %29 = call ptr @debackslash(ptr noundef %27, i32 noundef %28)
  store ptr %29, ptr %3, align 8
  br label %30

30:                                               ; preds = %26, %24, %8
  %31 = load ptr, ptr %3, align 8
  ret ptr %31
}

; Function Attrs: inlinehint nounwind willreturn memory(read) uwtable
define available_externally i32 @atoi(ptr noundef nonnull %0) #6 {
  %2 = alloca ptr, align 8
  store ptr %0, ptr %2, align 8
  %3 = load ptr, ptr %2, align 8
  %4 = call i64 @strtol(ptr noundef %3, ptr noundef null, i32 noundef 10) #9
  %5 = trunc i64 %4 to i32
  ret i32 %5
}

; Function Attrs: inlinehint nounwind uwtable
define internal ptr @newNode(i64 noundef %0, i32 noundef %1) #7 {
  %3 = alloca i64, align 8
  %4 = alloca i32, align 4
  %5 = alloca ptr, align 8
  store i64 %0, ptr %3, align 8
  store i32 %1, ptr %4, align 4
  call void @llvm.lifetime.start.p0(i64 8, ptr %5) #9
  %6 = load i64, ptr %3, align 8
  %7 = call ptr @palloc0(i64 noundef %6)
  store ptr %7, ptr %5, align 8
  %8 = load i32, ptr %4, align 4
  %9 = load ptr, ptr %5, align 8
  %10 = getelementptr inbounds nuw %struct.Node, ptr %9, i32 0, i32 0
  store i32 %8, ptr %10, align 4
  %11 = load ptr, ptr %5, align 8
  call void @llvm.lifetime.end.p0(i64 8, ptr %5) #9
  ret ptr %11
}

; Function Attrs: nounwind uwtable
define internal ptr @_readAlterTableCmd() #0 {
  %1 = alloca ptr, align 8
  %2 = alloca ptr, align 8
  %3 = alloca i32, align 4
  call void @llvm.lifetime.start.p0(i64 8, ptr %1) #9
  %4 = call ptr @newNode(i64 noundef 48, i32 noundef 148)
  store ptr %4, ptr %1, align 8
  call void @llvm.lifetime.start.p0(i64 8, ptr %2) #9
  call void @llvm.lifetime.start.p0(i64 4, ptr %3) #9
  %5 = call ptr @pg_strtok(ptr noundef %3)
  store ptr %5, ptr %2, align 8
  %6 = call ptr @pg_strtok(ptr noundef %3)
  store ptr %6, ptr %2, align 8
  %7 = load ptr, ptr %2, align 8
  %8 = call i32 @atoi(ptr noundef %7) #11
  %9 = load ptr, ptr %1, align 8
  %10 = getelementptr inbounds nuw %struct.AlterTableCmd, ptr %9, i32 0, i32 1
  store i32 %8, ptr %10, align 4
  %11 = call ptr @pg_strtok(ptr noundef %3)
  store ptr %11, ptr %2, align 8
  %12 = call ptr @pg_strtok(ptr noundef %3)
  store ptr %12, ptr %2, align 8
  %13 = load ptr, ptr %2, align 8
  %14 = load i32, ptr %3, align 4
  %15 = call ptr @nullable_string(ptr noundef %13, i32 noundef %14)
  %16 = load ptr, ptr %1, align 8
  %17 = getelementptr inbounds nuw %struct.AlterTableCmd, ptr %16, i32 0, i32 2
  store ptr %15, ptr %17, align 8
  %18 = call ptr @pg_strtok(ptr noundef %3)
  store ptr %18, ptr %2, align 8
  %19 = call ptr @pg_strtok(ptr noundef %3)
  store ptr %19, ptr %2, align 8
  %20 = load ptr, ptr %2, align 8
  %21 = call i32 @atoi(ptr noundef %20) #11
  %22 = trunc i32 %21 to i16
  %23 = load ptr, ptr %1, align 8
  %24 = getelementptr inbounds nuw %struct.AlterTableCmd, ptr %23, i32 0, i32 3
  store i16 %22, ptr %24, align 8
  %25 = call ptr @pg_strtok(ptr noundef %3)
  store ptr %25, ptr %2, align 8
  %26 = call ptr @nodeRead(ptr noundef null, i32 noundef 0)
  %27 = load ptr, ptr %1, align 8
  %28 = getelementptr inbounds nuw %struct.AlterTableCmd, ptr %27, i32 0, i32 4
  store ptr %26, ptr %28, align 8
  %29 = call ptr @pg_strtok(ptr noundef %3)
  store ptr %29, ptr %2, align 8
  %30 = call ptr @nodeRead(ptr noundef null, i32 noundef 0)
  %31 = load ptr, ptr %1, align 8
  %32 = getelementptr inbounds nuw %struct.AlterTableCmd, ptr %31, i32 0, i32 5
  store ptr %30, ptr %32, align 8
  %33 = call ptr @pg_strtok(ptr noundef %3)
  store ptr %33, ptr %2, align 8
  %34 = call ptr @pg_strtok(ptr noundef %3)
  store ptr %34, ptr %2, align 8
  %35 = load ptr, ptr %2, align 8
  %36 = call i32 @atoi(ptr noundef %35) #11
  %37 = load ptr, ptr %1, align 8
  %38 = getelementptr inbounds nuw %struct.AlterTableCmd, ptr %37, i32 0, i32 6
  store i32 %36, ptr %38, align 8
  %39 = call ptr @pg_strtok(ptr noundef %3)
  store ptr %39, ptr %2, align 8
  %40 = call ptr @pg_strtok(ptr noundef %3)
  store ptr %40, ptr %2, align 8
  %41 = load ptr, ptr %2, align 8
  %42 = load i8, ptr %41, align 1
  %43 = sext i8 %42 to i32
  %44 = icmp eq i32 %43, 116
  %45 = select i1 %44, i32 1, i32 0
  %46 = icmp ne i32 %45, 0
  %47 = load ptr, ptr %1, align 8
  %48 = getelementptr inbounds nuw %struct.AlterTableCmd, ptr %47, i32 0, i32 7
  %49 = zext i1 %46 to i8
  store i8 %49, ptr %48, align 4
  %50 = call ptr @pg_strtok(ptr noundef %3)
  store ptr %50, ptr %2, align 8
  %51 = call ptr @pg_strtok(ptr noundef %3)
  store ptr %51, ptr %2, align 8
  %52 = load ptr, ptr %2, align 8
  %53 = load i8, ptr %52, align 1
  %54 = sext i8 %53 to i32
  %55 = icmp eq i32 %54, 116
  %56 = select i1 %55, i32 1, i32 0
  %57 = icmp ne i32 %56, 0
  %58 = load ptr, ptr %1, align 8
  %59 = getelementptr inbounds nuw %struct.AlterTableCmd, ptr %58, i32 0, i32 8
  %60 = zext i1 %57 to i8
  store i8 %60, ptr %59, align 1
  %61 = load ptr, ptr %1, align 8
  call void @llvm.lifetime.end.p0(i64 4, ptr %3) #9
  call void @llvm.lifetime.end.p0(i64 8, ptr %2) #9
  call void @llvm.lifetime.end.p0(i64 8, ptr %1) #9
  ret ptr %61
}